target datalayout = "e-m:e-p270:32:32-p271:32:32-p272:64:64-i64:64-i128:128-f80:128-n8:16:32:64-S128"
target triple = "x86_64-pc-linux-gnu"

%struct.b2World = type { %struct.b2ArenaAllocator, %struct.b2BroadPhase, %struct.b2ConstraintGraph, %struct.b2IdPool, %struct.b2BodyArray, %struct.b2IdPool, %struct.b2SolverSetArray, %struct.b2IdPool, %struct.b2JointArray, %struct.b2IdPool, %struct.b2ContactArray, %struct.b2IdPool, %struct.b2IslandArray, %struct.b2IdPool, %struct.b2IdPool, %struct.b2ShapeArray, %struct.b2ChainShapeArray, %struct.b2SensorArray, %struct.b2TaskContextArray, %struct.b2SensorTaskContextArray, %struct.b2BodyMoveEventArray, %struct.b2SensorBeginTouchEventArray, %struct.b2ContactBeginTouchEventArray, [2 x %struct.b2SensorEndTouchEventArray], [2 x %struct.b2ContactEndTouchEventArray], i32, %struct.b2ContactHitEventArray, %struct.b2BitSet, %struct.b2BitSet, %struct.b2BitSet, i64, i32, %struct.b2Vec2, float, float, float, float, float, float, float, float, ptr, ptr, i16, %struct.b2Profile, ptr, ptr, ptr, ptr, i32, ptr, ptr, ptr, ptr, ptr, float, i32, i32, i16, i8, i8, i8, i8, i8, i8 }
%struct.b2ArenaAllocator = type { ptr, i32, i32, i32, i32, %struct.b2ArenaEntryArray }
%struct.b2ArenaEntryArray = type { ptr, i32, i32 }
%struct.b2BroadPhase = type { [3 x %struct.b2DynamicTree], i32, %struct.b2HashSet, %struct.b2IntArray, ptr, ptr, i32, %struct.b2AtomicInt, %struct.b2HashSet }
%struct.b2DynamicTree = type { ptr, i32, i32, i32, i32, i32, ptr, ptr, ptr, ptr, i32 }
%struct.b2IntArray = type { ptr, i32, i32 }
%struct.b2AtomicInt = type { i32 }
%struct.b2HashSet = type { ptr, i32, i32 }
%struct.b2ConstraintGraph = type { [12 x %struct.b2GraphColor] }
%struct.b2GraphColor = type { %struct.b2BitSet, %struct.b2ContactSimArray, %struct.b2JointSimArray, %union.anon }
%struct.b2ContactSimArray = type { ptr, i32, i32 }
%struct.b2JointSimArray = type { ptr, i32, i32 }
%union.anon = type { ptr }
%struct.b2BodyArray = type { ptr, i32, i32 }
%struct.b2SolverSetArray = type { ptr, i32, i32 }
%struct.b2JointArray = type { ptr, i32, i32 }
%struct.b2ContactArray = type { ptr, i32, i32 }
%struct.b2IslandArray = type { ptr, i32, i32 }
%struct.b2IdPool = type { %struct.b2IntArray, i32 }
%struct.b2ShapeArray = type { ptr, i32, i32 }
%struct.b2ChainShapeArray = type { ptr, i32, i32 }
%struct.b2SensorArray = type { ptr, i32, i32 }
%struct.b2TaskContextArray = type { ptr, i32, i32 }
%struct.b2SensorTaskContextArray = type { ptr, i32, i32 }
%struct.b2BodyMoveEventArray = type { ptr, i32, i32 }
%struct.b2SensorBeginTouchEventArray = type { ptr, i32, i32 }
%struct.b2ContactBeginTouchEventArray = type { ptr, i32, i32 }
%struct.b2SensorEndTouchEventArray = type { ptr, i32, i32 }
%struct.b2ContactEndTouchEventArray = type { ptr, i32, i32 }
%struct.b2ContactHitEventArray = type { ptr, i32, i32 }
%struct.b2BitSet = type { ptr, i32, i32 }
%struct.b2Vec2 = type { float, float }
%struct.b2Profile = type { float, float, float, float, float, float, float, float, float, float, float, float, float, float, float, float, float, float, float, float, float, float }
%struct.b2Transform = type { %struct.b2Vec2, %struct.b2Rot }
%struct.b2Rot = type { float, float }
%struct.b2ShapeId = type { i32, i16, i16 }
%struct.b2Shape = type { i32, i32, i32, i32, i32, i32, float, float, float, float, float, i32, %struct.b2AABB, %struct.b2AABB, %struct.b2Vec2, i32, %struct.b2Filter, ptr, i32, %union.anon.0, i16, i8, i8, i8, i8 }
%struct.b2AABB = type { %struct.b2Vec2, %struct.b2Vec2 }
%struct.b2Filter = type { i64, i64, i32 }
%union.anon.0 = type { %struct.b2Polygon }
%struct.b2Polygon = type { [8 x %struct.b2Vec2], [8 x %struct.b2Vec2], %struct.b2Vec2, float, i32 }
%struct.b2Body = type { [32 x i8], ptr, i32, i32, i32, i32, i32, i32, i32, i32, i32, i32, i32, i32, float, float, float, float, i32, i32, i32, i16, i8, i8, i8, i8 }
%struct.b2QueryFilter = type { i64, i64 }
%struct.b2RayCastInput = type { %struct.b2Vec2, %struct.b2Vec2, float }
%struct.WorldRayCastContext = type { ptr, ptr, %struct.b2QueryFilter, float, ptr }
%struct.b2CastOutput = type { %struct.b2Vec2, %struct.b2Vec2, float, i32, i8 }

; Function Attrs: inlinehint nounwind uwtable
define internal ptr @b2BodyArray_Get(ptr noundef %0, i32 noundef %1) #5 {
  %3 = alloca ptr, align 8
  %4 = alloca i32, align 4
  store ptr %0, ptr %3, align 8, !tbaa !12
  store i32 %1, ptr %4, align 4, !tbaa !3
  %5 = load ptr, ptr %3, align 8, !tbaa !12
  %6 = getelementptr inbounds nuw %struct.b2BodyArray, ptr %5, i32 0, i32 0
  %7 = load ptr, ptr %6, align 8, !tbaa !394
  %8 = load i32, ptr %4, align 4, !tbaa !3
  %9 = sext i32 %8 to i64
  %10 = getelementptr inbounds %struct.b2Body, ptr %7, i64 %9
  ret ptr %10
}

; Function Attrs: inlinehint nounwind uwtable
define internal ptr @b2ShapeArray_Get(ptr noundef %0, i32 noundef %1) #5 {
  %3 = alloca ptr, align 8
  %4 = alloca i32, align 4
  store ptr %0, ptr %3, align 8, !tbaa !12
  store i32 %1, ptr %4, align 4, !tbaa !3
  %5 = load ptr, ptr %3, align 8, !tbaa !12
  %6 = getelementptr inbounds nuw %struct.b2ShapeArray, ptr %5, i32 0, i32 0
  %7 = load ptr, ptr %6, align 8, !tbaa !612
  %8 = load i32, ptr %4, align 4, !tbaa !3
  %9 = sext i32 %8 to i64
  %10 = getelementptr inbounds %struct.b2Shape, ptr %7, i64 %9
  ret ptr %10
}

; Function Attrs: nounwind uwtable
define internal float @RayCastCallback(ptr noundef %0, i32 noundef %1, i32 noundef %2, ptr noundef %3) #6 {
  %5 = alloca float, align 4
  %6 = alloca ptr, align 8
  %7 = alloca i32, align 4
  %8 = alloca i32, align 4
  %9 = alloca ptr, align 8
  %10 = alloca ptr, align 8
  %11 = alloca ptr, align 8
  %12 = alloca ptr, align 8
  %13 = alloca %struct.b2Filter, align 8
  %14 = alloca %struct.b2QueryFilter, align 8
  %15 = alloca i32, align 4
  %16 = alloca ptr, align 8
  %17 = alloca %struct.b2Transform, align 4
  %18 = alloca %struct.b2CastOutput, align 4
  %19 = alloca %struct.b2ShapeId, align 4
  %20 = alloca float, align 4
  store ptr %0, ptr %6, align 8, !tbaa !543
  store i32 %1, ptr %7, align 4, !tbaa !3
  store i32 %2, ptr %8, align 4, !tbaa !3
  store ptr %3, ptr %9, align 8, !tbaa !12
  call void @llvm.lifetime.start.p0(i64 8, ptr %10) #10
  %21 = load ptr, ptr %9, align 8, !tbaa !12
  store ptr %21, ptr %10, align 8, !tbaa !545
  call void @llvm.lifetime.start.p0(i64 8, ptr %11) #10
  %22 = load ptr, ptr %10, align 8, !tbaa !545
  %23 = getelementptr inbounds nuw %struct.WorldRayCastContext, ptr %22, i32 0, i32 0
  %24 = load ptr, ptr %23, align 8, !tbaa !537
  store ptr %24, ptr %11, align 8, !tbaa !47
  call void @llvm.lifetime.start.p0(i64 8, ptr %12) #10
  %25 = load ptr, ptr %11, align 8, !tbaa !47
  %26 = getelementptr inbounds nuw %struct.b2World, ptr %25, i32 0, i32 15
  %27 = load i32, ptr %8, align 4, !tbaa !3
  %28 = call ptr @b2ShapeArray_Get(ptr noundef %26, i32 noundef %27)
  store ptr %28, ptr %12, align 8, !tbaa !113
  call void @llvm.lifetime.start.p0(i64 24, ptr %13) #10
  %29 = load ptr, ptr %12, align 8, !tbaa !113
  %30 = getelementptr inbounds nuw %struct.b2Shape, ptr %29, i32 0, i32 16
  call void @llvm.memcpy.p0.p0.i64(ptr align 8 %13, ptr align 8 %30, i64 24, i1 false), !tbaa.struct !515
  call void @llvm.lifetime.start.p0(i64 16, ptr %14) #10
  %31 = load ptr, ptr %10, align 8, !tbaa !545
  %32 = getelementptr inbounds nuw %struct.WorldRayCastContext, ptr %31, i32 0, i32 2
  call void @llvm.memcpy.p0.p0.i64(ptr align 8 %14, ptr align 8 %32, i64 16, i1 false), !tbaa.struct !506
  %33 = getelementptr inbounds nuw %struct.b2Filter, ptr %13, i32 0, i32 0
  %34 = load i64, ptr %33, align 8, !tbaa !516
  %35 = getelementptr inbounds nuw %struct.b2QueryFilter, ptr %14, i32 0, i32 1
  %36 = load i64, ptr %35, align 8, !tbaa !508
  %37 = and i64 %34, %36
  %38 = icmp eq i64 %37, 0
  br i1 %38, label %46, label %39

39:                                               ; preds = %4
  %40 = getelementptr inbounds nuw %struct.b2Filter, ptr %13, i32 0, i32 1
  %41 = load i64, ptr %40, align 8, !tbaa !517
  %42 = getelementptr inbounds nuw %struct.b2QueryFilter, ptr %14, i32 0, i32 0
  %43 = load i64, ptr %42, align 8, !tbaa !518
  %44 = and i64 %41, %43
  %45 = icmp eq i64 %44, 0
  br i1 %45, label %46, label %50

46:                                               ; preds = %39, %4
  %47 = load ptr, ptr %6, align 8, !tbaa !543
  %48 = getelementptr inbounds nuw %struct.b2RayCastInput, ptr %47, i32 0, i32 2
  %49 = load float, ptr %48, align 4, !tbaa !535
  store float %49, ptr %5, align 4
  store i32 1, ptr %15, align 4
  br label %115

50:                                               ; preds = %39
  call void @llvm.lifetime.start.p0(i64 8, ptr %16) #10
  %51 = load ptr, ptr %11, align 8, !tbaa !47
  %52 = getelementptr inbounds nuw %struct.b2World, ptr %51, i32 0, i32 4
  %53 = load ptr, ptr %12, align 8, !tbaa !113
  %54 = getelementptr inbounds nuw %struct.b2Shape, ptr %53, i32 0, i32 1
  %55 = load i32, ptr %54, align 4, !tbaa !527
  %56 = call ptr @b2BodyArray_Get(ptr noundef %52, i32 noundef %55)
  store ptr %56, ptr %16, align 8, !tbaa !108
  call void @llvm.lifetime.start.p0(i64 16, ptr %17) #10
  %57 = load ptr, ptr %11, align 8, !tbaa !47
  %58 = load ptr, ptr %16, align 8, !tbaa !108
  %59 = call { <2 x float>, <2 x float> } @b2GetBodyTransformQuick(ptr noundef %57, ptr noundef %58)
  %60 = getelementptr inbounds nuw { <2 x float>, <2 x float> }, ptr %17, i32 0, i32 0
  %61 = extractvalue { <2 x float>, <2 x float> } %59, 0
  store <2 x float> %61, ptr %60, align 4
  %62 = getelementptr inbounds nuw { <2 x float>, <2 x float> }, ptr %17, i32 0, i32 1
  %63 = extractvalue { <2 x float>, <2 x float> } %59, 1
  store <2 x float> %63, ptr %62, align 4
  call void @llvm.lifetime.start.p0(i64 28, ptr %18) #10
  %64 = load ptr, ptr %6, align 8, !tbaa !543
  %65 = load ptr, ptr %12, align 8, !tbaa !113
  %66 = getelementptr inbounds nuw { <2 x float>, <2 x float> }, ptr %17, i32 0, i32 0
  %67 = load <2 x float>, ptr %66, align 4
  %68 = getelementptr inbounds nuw { <2 x float>, <2 x float> }, ptr %17, i32 0, i32 1
  %69 = load <2 x float>, ptr %68, align 4
  call void @b2RayCastShape(ptr dead_on_unwind writable sret(%struct.b2CastOutput) align 4 %18, ptr noundef %64, ptr noundef %65, <2 x float> %67, <2 x float> %69)
  %70 = getelementptr inbounds nuw %struct.b2CastOutput, ptr %18, i32 0, i32 4
  %71 = load i8, ptr %70, align 4, !tbaa !547, !range !90, !noundef !91
  %72 = trunc i8 %71 to i1
  br i1 %72, label %73, label %110

73:                                               ; preds = %50
  call void @llvm.lifetime.start.p0(i64 8, ptr %19) #10
  %74 = getelementptr inbounds nuw %struct.b2ShapeId, ptr %19, i32 0, i32 0
  %75 = load i32, ptr %8, align 4, !tbaa !3
  %76 = add nsw i32 %75, 1
  store i32 %76, ptr %74, align 4, !tbaa !289
  %77 = getelementptr inbounds nuw %struct.b2ShapeId, ptr %19, i32 0, i32 1
  %78 = load ptr, ptr %11, align 8, !tbaa !47
  %79 = getelementptr inbounds nuw %struct.b2World, ptr %78, i32 0, i32 58
  %80 = load i16, ptr %79, align 4, !tbaa !126
  store i16 %80, ptr %77, align 4, !tbaa !291
  %81 = getelementptr inbounds nuw %struct.b2ShapeId, ptr %19, i32 0, i32 2
  %82 = load ptr, ptr %12, align 8, !tbaa !113
  %83 = getelementptr inbounds nuw %struct.b2Shape, ptr %82, i32 0, i32 20
  %84 = load i16, ptr %83, align 4, !tbaa !292
  store i16 %84, ptr %81, align 2, !tbaa !293
  call void @llvm.lifetime.start.p0(i64 4, ptr %20) #10
  %85 = load ptr, ptr %10, align 8, !tbaa !545
  %86 = getelementptr inbounds nuw %struct.WorldRayCastContext, ptr %85, i32 0, i32 1
  %87 = load ptr, ptr %86, align 8, !tbaa !539
  %88 = getelementptr inbounds nuw %struct.b2CastOutput, ptr %18, i32 0, i32 1
  %89 = getelementptr inbounds nuw %struct.b2CastOutput, ptr %18, i32 0, i32 0
  %90 = getelementptr inbounds nuw %struct.b2CastOutput, ptr %18, i32 0, i32 2
  %91 = load float, ptr %90, align 4, !tbaa !549
  %92 = load ptr, ptr %10, align 8, !tbaa !545
  %93 = getelementptr inbounds nuw %struct.WorldRayCastContext, ptr %92, i32 0, i32 4
  %94 = load ptr, ptr %93, align 8, !tbaa !541
  %95 = load i64, ptr %19, align 4
  %96 = load <2 x float>, ptr %88, align 4
  %97 = load <2 x float>, ptr %89, align 4
  %98 = call float %87(i64 %95, <2 x float> %96, <2 x float> %97, float noundef %91, ptr noundef %94)
  store float %98, ptr %20, align 4, !tbaa !124
  %99 = load float, ptr %20, align 4, !tbaa !124
  %100 = fcmp ole float 0.000000e+00, %99
  br i1 %100, label %101, label %108

101:                                              ; preds = %73
  %102 = load float, ptr %20, align 4, !tbaa !124
  %103 = fcmp ole float %102, 1.000000e+00
  br i1 %103, label %104, label %108

104:                                              ; preds = %101
  %105 = load float, ptr %20, align 4, !tbaa !124
  %106 = load ptr, ptr %10, align 8, !tbaa !545
  %107 = getelementptr inbounds nuw %struct.WorldRayCastContext, ptr %106, i32 0, i32 3
  store float %105, ptr %107, align 8, !tbaa !540
  br label %108

108:                                              ; preds = %104, %101, %73
  %109 = load float, ptr %20, align 4, !tbaa !124
  store float %109, ptr %5, align 4
  store i32 1, ptr %15, align 4
  call void @llvm.lifetime.end.p0(i64 4, ptr %20) #10
  call void @llvm.lifetime.end.p0(i64 8, ptr %19) #10
  br label %114

110:                                              ; preds = %50
  %111 = load ptr, ptr %6, align 8, !tbaa !543
  %112 = getelementptr inbounds nuw %struct.b2RayCastInput, ptr %111, i32 0, i32 2
  %113 = load float, ptr %112, align 4, !tbaa !535
  store float %113, ptr %5, align 4
  store i32 1, ptr %15, align 4
  br label %114

114:                                              ; preds = %110, %108
  call void @llvm.lifetime.end.p0(i64 28, ptr %18) #10
  call void @llvm.lifetime.end.p0(i64 16, ptr %17) #10
  call void @llvm.lifetime.end.p0(i64 8, ptr %16) #10
  br label %115

115:                                              ; preds = %114, %46
  call void @llvm.lifetime.end.p0(i64 16, ptr %14) #10
  call void @llvm.lifetime.end.p0(i64 24, ptr %13) #10
  call void @llvm.lifetime.end.p0(i64 8, ptr %12) #10
  call void @llvm.lifetime.end.p0(i64 8, ptr %11) #10
  call void @llvm.lifetime.end.p0(i64 8, ptr %10) #10
  %116 = load float, ptr %5, align 4
  ret float %116
}