; Function Attrs: nounwind uwtable
define internal float @RayCastCallback(ptr noundef %0, i32 %1, i32 noundef %2, ptr noundef captures(none) %3) #8 {
  %5 = alloca %struct.b2CastOutput, align 8
  %6 = load ptr, ptr %3, align 8, !tbaa !436
  %7 = getelementptr inbounds nuw i8, ptr %6, i64 1256
  %.val33 = load ptr, ptr %7, align 8, !tbaa !418
  %8 = sext i32 %2 to i64
  %9 = getelementptr inbounds %struct.b2Shape, ptr %.val33, i64 %8
  %10 = getelementptr inbounds nuw i8, ptr %9, i64 96
  %.sroa.010.0.copyload = load i64, ptr %10, align 8, !tbaa !227
  %.sroa.49.0..sroa_idx = getelementptr inbounds nuw i8, ptr %3, i64 24
  %.sroa.49.0.copyload = load i64, ptr %.sroa.49.0..sroa_idx, align 8, !tbaa !227
  %11 = and i64 %.sroa.49.0.copyload, %.sroa.010.0.copyload
  %12 = icmp eq i64 %11, 0
  br i1 %12, label %17, label %13

13:                                               ; preds = %4
  %14 = getelementptr inbounds nuw i8, ptr %3, i64 16
  %.sroa.08.0.copyload = load i64, ptr %14, align 8, !tbaa !227
  %.sroa.411.0..sroa_idx = getelementptr inbounds nuw i8, ptr %9, i64 104
  %.sroa.411.0.copyload = load i64, ptr %.sroa.411.0..sroa_idx, align 8, !tbaa !227
  %15 = and i64 %.sroa.411.0.copyload, %.sroa.08.0.copyload
  %16 = icmp eq i64 %15, 0
  br i1 %16, label %17, label %20

17:                                               ; preds = %13, %4
  %18 = getelementptr inbounds nuw i8, ptr %0, i64 16
  %19 = load float, ptr %18, align 4, !tbaa !434
  br label %56

20:                                               ; preds = %13
  %21 = getelementptr inbounds nuw i8, ptr %6, i64 1032
  %22 = getelementptr inbounds nuw i8, ptr %9, i64 4
  %23 = load i32, ptr %22, align 4, !tbaa !425
  %.val = load ptr, ptr %21, align 8, !tbaa !269
  %24 = sext i32 %23 to i64
  %25 = getelementptr inbounds %struct.b2Body, ptr %.val, i64 %24
  %26 = tail call { <2 x float>, <2 x float> } @b2GetBodyTransformQuick(ptr noundef nonnull %6, ptr noundef %25) #22
  %27 = extractvalue { <2 x float>, <2 x float> } %26, 0
  %28 = extractvalue { <2 x float>, <2 x float> } %26, 1
  call void @llvm.lifetime.start.p0(i64 28, ptr nonnull %5) #22
  call void @b2RayCastShape(ptr dead_on_unwind nonnull writable sret(%struct.b2CastOutput) align 4 %5, ptr noundef %0, ptr noundef nonnull %9, <2 x float> %27, <2 x float> %28) #22
  %29 = getelementptr inbounds nuw i8, ptr %5, i64 24
  %30 = load i8, ptr %29, align 8, !tbaa !442, !range !77, !noundef !78
  %31 = trunc nuw i8 %30 to i1
  br i1 %31, label %32, label %52

32:                                               ; preds = %20
  %33 = add nsw i32 %2, 1
  %34 = getelementptr inbounds nuw i8, ptr %6, i64 1780
  %35 = load i16, ptr %34, align 4, !tbaa !83
  %36 = getelementptr inbounds nuw i8, ptr %9, i64 276
  %37 = load i16, ptr %36, align 4, !tbaa !239
  %38 = getelementptr inbounds nuw i8, ptr %3, i64 8
  %39 = load ptr, ptr %38, align 8, !tbaa !438
  %40 = getelementptr inbounds nuw i8, ptr %5, i64 8
  %41 = getelementptr inbounds nuw i8, ptr %5, i64 16
  %42 = load float, ptr %41, align 8, !tbaa !444
  %43 = getelementptr inbounds nuw i8, ptr %3, i64 40
  %44 = load ptr, ptr %43, align 8, !tbaa !440
  %.sroa.5.0.insert.ext = zext i16 %37 to i64
  %.sroa.5.0.insert.shift = shl nuw i64 %.sroa.5.0.insert.ext, 48
  %.sroa.4.0.insert.ext = zext i16 %35 to i64
  %.sroa.4.0.insert.shift = shl nuw nsw i64 %.sroa.4.0.insert.ext, 32
  %.sroa.0.0.insert.ext = zext i32 %33 to i64
  %.sroa.4.0.insert.insert = or disjoint i64 %.sroa.4.0.insert.shift, %.sroa.0.0.insert.ext
  %.sroa.0.0.insert.insert = or disjoint i64 %.sroa.4.0.insert.insert, %.sroa.5.0.insert.shift
  %45 = load <2 x float>, ptr %40, align 8
  %46 = load <2 x float>, ptr %5, align 8
  %47 = call float %39(i64 %.sroa.0.0.insert.insert, <2 x float> %45, <2 x float> %46, float noundef %42, ptr noundef %44) #22
  %48 = fcmp oge float %47, 0.000000e+00
  %49 = fcmp ole float %47, 1.000000e+00
  %or.cond = and i1 %48, %49
  br i1 %or.cond, label %50, label %55

50:                                               ; preds = %32
  %51 = getelementptr inbounds nuw i8, ptr %3, i64 32
  store float %47, ptr %51, align 8, !tbaa !439
  br label %55

52:                                               ; preds = %20
  %53 = getelementptr inbounds nuw i8, ptr %0, i64 16
  %54 = load float, ptr %53, align 4, !tbaa !434
  br label %55

55:                                               ; preds = %32, %50, %52
  %.1 = phi float [ %54, %52 ], [ %47, %50 ], [ %47, %32 ]
  call void @llvm.lifetime.end.p0(i64 28, ptr nonnull %5) #22
  br label %56

56:                                               ; preds = %55, %17
  %.0 = phi float [ %19, %17 ], [ %.1, %55 ]
  ret float %.0
}